target datalayout = "e-m:e-p270:32:32-p271:32:32-p272:64:64-i64:64-i128:128-f80:128-n8:16:32:64-S128"
target triple = "x86_64-unknown-linux-gnu"

%"class.icu_75::CollationRuleParser" = type <{ ptr, ptr, ptr, ptr, ptr, ptr, ptr, ptr, ptr, i32, [4 x i8] }>
%struct.UParseError = type { i32, i32, [16 x i16], [16 x i16] }

; Function Attrs: mustprogress nounwind uwtable
define internal noundef signext i8 @_ZL9U_FAILURE10UErrorCode(i32 noundef %code) #0 {
entry:
  %code.addr = alloca i32, align 4
  store i32 %code, ptr %code.addr, align 4
  %0 = load i32, ptr %code.addr, align 4
  %cmp = icmp sgt i32 %0, 0
  %conv = zext i1 %cmp to i8
  ret i8 %conv
}

; Function Attrs: mustprogress uwtable
define void @_ZN6icu_7519CollationRuleParser5parseERKNS_13UnicodeStringERNS_17CollationSettingsEP11UParseErrorR10UErrorCode(ptr noundef nonnull align 8 dereferenceable(76) %this, ptr noundef nonnull align 8 dereferenceable(64) %ruleString, ptr noundef nonnull align 8 dereferenceable(852) %outSettings, ptr noundef %outParseError, ptr noundef nonnull align 4 dereferenceable(4) %errorCode) #1 align 2 {
entry:
  %this.addr = alloca ptr, align 8
  %ruleString.addr = alloca ptr, align 8
  %outSettings.addr = alloca ptr, align 8
  %outParseError.addr = alloca ptr, align 8
  %errorCode.addr = alloca ptr, align 8
  store ptr %this, ptr %this.addr, align 8
  store ptr %ruleString, ptr %ruleString.addr, align 8
  store ptr %outSettings, ptr %outSettings.addr, align 8
  store ptr %outParseError, ptr %outParseError.addr, align 8
  store ptr %errorCode, ptr %errorCode.addr, align 8
  %this1 = load ptr, ptr %this.addr, align 8
  %0 = load ptr, ptr %errorCode.addr, align 8
  %1 = load i32, ptr %0, align 4
  %call = call noundef signext i8 @_ZL9U_FAILURE10UErrorCode(i32 noundef %1)
  %tobool = icmp ne i8 %call, 0
  br i1 %tobool, label %if.then, label %if.end

if.then:                                          ; preds = %entry
  br label %return

if.end:                                           ; preds = %entry
  %2 = load ptr, ptr %outSettings.addr, align 8
  %settings = getelementptr inbounds %"class.icu_75::CollationRuleParser", ptr %this1, i32 0, i32 4
  store ptr %2, ptr %settings, align 8
  %3 = load ptr, ptr %outParseError.addr, align 8
  %parseError = getelementptr inbounds %"class.icu_75::CollationRuleParser", ptr %this1, i32 0, i32 5
  store ptr %3, ptr %parseError, align 8
  %parseError2 = getelementptr inbounds %"class.icu_75::CollationRuleParser", ptr %this1, i32 0, i32 5
  %4 = load ptr, ptr %parseError2, align 8
  %cmp = icmp ne ptr %4, null
  br i1 %cmp, label %if.then3, label %if.end9

if.then3:                                         ; preds = %if.end
  %parseError4 = getelementptr inbounds %"class.icu_75::CollationRuleParser", ptr %this1, i32 0, i32 5
  %5 = load ptr, ptr %parseError4, align 8
  %line = getelementptr inbounds %struct.UParseError, ptr %5, i32 0, i32 0
  store i32 0, ptr %line, align 4
  %parseError5 = getelementptr inbounds %"class.icu_75::CollationRuleParser", ptr %this1, i32 0, i32 5
  %6 = load ptr, ptr %parseError5, align 8
  %offset = getelementptr inbounds %struct.UParseError, ptr %6, i32 0, i32 1
  store i32 -1, ptr %offset, align 4
  %parseError6 = getelementptr inbounds %"class.icu_75::CollationRuleParser", ptr %this1, i32 0, i32 5
  %7 = load ptr, ptr %parseError6, align 8
  %preContext = getelementptr inbounds %struct.UParseError, ptr %7, i32 0, i32 2
  %arrayidx = getelementptr inbounds [16 x i16], ptr %preContext, i64 0, i64 0
  store i16 0, ptr %arrayidx, align 4
  %parseError7 = getelementptr inbounds %"class.icu_75::CollationRuleParser", ptr %this1, i32 0, i32 5
  %8 = load ptr, ptr %parseError7, align 8
  %postContext = getelementptr inbounds %struct.UParseError, ptr %8, i32 0, i32 3
  %arrayidx8 = getelementptr inbounds [16 x i16], ptr %postContext, i64 0, i64 0
  store i16 0, ptr %arrayidx8, align 4
  br label %if.end9

if.end9:                                          ; preds = %if.then3, %if.end
  %errorReason = getelementptr inbounds %"class.icu_75::CollationRuleParser", ptr %this1, i32 0, i32 6
  store ptr null, ptr %errorReason, align 8
  %9 = load ptr, ptr %ruleString.addr, align 8
  %10 = load ptr, ptr %errorCode.addr, align 8
  call void @_ZN6icu_7519CollationRuleParser5parseERKNS_13UnicodeStringER10UErrorCode(ptr noundef nonnull align 8 dereferenceable(76) %this1, ptr noundef nonnull align 8 dereferenceable(64) %9, ptr noundef nonnull align 4 dereferenceable(4) %10)
  br label %return

return:                                           ; preds = %if.end9, %if.then
  ret void
}