; Function Attrs: mustprogress uwtable
define void @_ZN6icu_7519CollationRuleParser5parseERKNS_13UnicodeStringERNS_17CollationSettingsEP11UParseErrorR10UErrorCode(ptr noundef nonnull align 8 dereferenceable(76) %this, ptr noundef nonnull align 8 dereferenceable(64) %ruleString, ptr noundef nonnull align 8 dereferenceable(852) %outSettings, ptr noundef %outParseError, ptr noundef nonnull align 4 dereferenceable(4) %errorCode) local_unnamed_addr #1 align 2 {
entry:
  %0 = load i32, ptr %errorCode, align 4
  %cmp.i = icmp slt i32 %0, 1
  br i1 %cmp.i, label %if.end, label %return

if.end:                                           ; preds = %entry
  %settings = getelementptr inbounds i8, ptr %this, i64 32
  store ptr %outSettings, ptr %settings, align 8
  %parseError = getelementptr inbounds i8, ptr %this, i64 40
  store ptr %outParseError, ptr %parseError, align 8
  %cmp.not = icmp eq ptr %outParseError, null
  br i1 %cmp.not, label %if.end9, label %if.then3

if.then3:                                         ; preds = %if.end
  store i32 0, ptr %outParseError, align 4
  %1 = load ptr, ptr %parseError, align 8
  %offset = getelementptr inbounds i8, ptr %1, i64 4
  store i32 -1, ptr %offset, align 4
  %2 = load ptr, ptr %parseError, align 8
  %preContext = getelementptr inbounds i8, ptr %2, i64 8
  store i16 0, ptr %preContext, align 4
  %3 = load ptr, ptr %parseError, align 8
  %postContext = getelementptr inbounds i8, ptr %3, i64 40
  store i16 0, ptr %postContext, align 4
  br label %if.end9

if.end9:                                          ; preds = %if.then3, %if.end
  %errorReason = getelementptr inbounds i8, ptr %this, i64 48
  store ptr null, ptr %errorReason, align 8
  tail call void @_ZN6icu_7519CollationRuleParser5parseERKNS_13UnicodeStringER10UErrorCode(ptr noundef nonnull align 8 dereferenceable(76) %this, ptr noundef nonnull align 8 dereferenceable(64) %ruleString, ptr noundef nonnull align 4 dereferenceable(4) %errorCode)
  br label %return

return:                                           ; preds = %entry, %if.end9
  ret void
}